target datalayout = "e-m:e-p270:32:32-p271:32:32-p272:64:64-i64:64-i128:128-f80:128-n8:16:32:64-S128"
target triple = "x86_64-pc-linux-gnu"

%class.LibRaw = type { ptr, %struct.libraw_data_t, ptr, %struct.libraw_internal_data_t, [2048 x %struct.decode], ptr, ptr, [10 x %struct.tiff_ifd_t], %class.libraw_memmgr, %struct.libraw_callbacks_t, { i64, i64 }, { i64, i64 }, { i64, i64 }, ptr, ptr, ptr, i64, ptr, ptr, ptr, ptr }
%struct.libraw_data_t = type { ptr, %struct.libraw_image_sizes_t, %struct.libraw_iparams_t, %struct.libraw_lensinfo_t, %struct.libraw_makernotes_t, %struct.libraw_shootinginfo_t, %struct.libraw_output_params_t, %struct.libraw_raw_unpack_params_t, i32, i32, %struct.libraw_colordata_t, %struct.libraw_imgother_t, %struct.libraw_thumbnail_t, %struct.libraw_thumbnail_list_t, %struct.libraw_rawdata_t, ptr }
%struct.libraw_image_sizes_t = type { i16, i16, i16, i16, i16, i16, i16, i16, i32, double, i32, [8 x [4 x i32]], i16, [2 x %struct.libraw_raw_inset_crop_t] }
%struct.libraw_raw_inset_crop_t = type { i16, i16, i16, i16 }
%struct.libraw_iparams_t = type { [4 x i8], [64 x i8], [64 x i8], [64 x i8], [64 x i8], [64 x i8], i32, i32, i32, i32, i32, i32, [6 x [6 x i8]], [6 x [6 x i8]], [5 x i8], i32, ptr }
%struct.libraw_lensinfo_t = type { float, float, float, float, float, [128 x i8], [128 x i8], [128 x i8], [128 x i8], i16, %struct.libraw_nikonlens_t, %struct.libraw_dnglens_t, %struct.libraw_makernotes_lens_t }
%struct.libraw_nikonlens_t = type { float, i8, i8, i8, i8 }
%struct.libraw_dnglens_t = type { float, float, float, float }
%struct.libraw_makernotes_lens_t = type { i64, [128 x i8], i16, i16, i64, i16, i16, [64 x i8], i16, [16 x i8], [16 x i8], float, float, float, float, float, float, float, float, float, float, float, float, float, float, float, i64, [128 x i8], i64, [128 x i8], i64, [128 x i8], i16, float }
%struct.libraw_makernotes_t = type { %struct.libraw_canon_makernotes_t, %struct.libraw_nikon_makernotes_t, %struct.libraw_hasselblad_makernotes_t, %struct.libraw_fuji_info_t, %struct.libraw_olympus_makernotes_t, %struct.libraw_sony_info_t, %struct.libraw_kodak_makernotes_t, %struct.libraw_panasonic_makernotes_t, %struct.libraw_pentax_makernotes_t, %struct.libraw_p1_makernotes_t, %struct.libraw_ricoh_makernotes_t, %struct.libraw_samsung_makernotes_t, %struct.libraw_metadata_common_t }
%struct.libraw_canon_makernotes_t = type { i32, i32, i32, i32, [4 x i32], i32, [4 x i32], i16, i16, i8, i16, i16, i16, i16, i16, i16, i16, i16, i16, i16, i16, i16, i16, i32, float, i16, i16, i16, i32, i16, i32, i32, i16, i32, %struct.libraw_area_t, %struct.libraw_area_t, %struct.libraw_area_t, %struct.libraw_area_t, %struct.libraw_area_t, [2 x i16] }
%struct.libraw_area_t = type { i16, i16, i16, i16 }
%struct.libraw_nikon_makernotes_t = type { double, i16, i16, [7 x i8], i8, i8, [13 x i8], [20 x i8], [4 x i8], [4 x i8], [4 x i8], i8, i8, i8, i8, i8, [2 x i8], i8, i8, i8, i8, i8, [4 x i8], [4 x i8], i8, i16, i32, i32, i32, i32, [4 x double], i8, i8, i8, i32, i32, i32, i8, [4 x i16], i16, %struct.libraw_sensor_highspeed_crop_t, i16, i16, i16, i32, [20 x i8], [20 x i8], i32, i16, double, double, double }
%struct.libraw_sensor_highspeed_crop_t = type { i16, i16, i16, i16 }
%struct.libraw_hasselblad_makernotes_t = type { i32, double, [8 x i8], [64 x i8], [64 x i8], i32, i32, i32, i32, [32 x i8], [64 x i8], i32, [2 x i32], [2 x i32], [4 x [3 x double]] }
%struct.libraw_fuji_info_t = type { float, i16, i16, i16, i16, i16, i16, i16, i16, [33 x i8], [33 x i8], float, i16, i16, [2 x i16], i16, i32, i32, i16, [3 x i16], i16, i16, i16, i16, i16, i32, i16, [13 x i8], [5 x i8], [5 x i8], i32, i16, i32, i16, [9 x i16], [32 x i32], i32, i32, i32, [2 x float], i32 }
%struct.libraw_olympus_makernotes_t = type { [6 x i8], i16, [2 x i32], [5 x i16], i16, [2 x i16], i16, i16, [64 x i32], [5 x double], i16, i8, [3 x i16], [3 x i32], i16, i16, i16, i16, double, [4 x i16], [2 x i32], i8, i32, i16, i16 }
%struct.libraw_sony_info_t = type { i16, i8, i8, i32, i8, i32, i8, i8, i16, [2 x i16], i8, i8, i16, [10 x i8], i8, i8, [4 x i16], i16, i8, i8, i8, i16, i32, i16, [2 x i16], i16, i16, i16, i16, i16, i16, i16, i32, float, i16, i32, i32, i16, [20 x i8], i32, i16, i32, i8, i8, i16, i16, i16, i16, i16, i16, i16, i16, i16, i32, i16, [16 x i8], float }
%struct.libraw_kodak_makernotes_t = type { i16, i16, i16, i16, i16, i16, [3 x [3 x float]], [3 x [3 x float]], [3 x [3 x float]], [3 x [3 x float]], [3 x [3 x float]], [3 x [3 x float]], i16, i16, i16, i16, float, float }
%struct.libraw_panasonic_makernotes_t = type { i16, i16, [8 x float], i32, float, [3 x i32], i16, i16, i32, i32 }
%struct.libraw_pentax_makernotes_t = type { [4 x i8], [2 x i16], [2 x i16], i16, i32, i32, i16, i16, i8, i8, i16 }
%struct.libraw_p1_makernotes_t = type { [64 x i8], [64 x i8], [256 x i8], [64 x i8] }
%struct.libraw_ricoh_makernotes_t = type { i16, [2 x i32], [2 x i32], i16, i32, i32, i32, i32, i16, i16, i16, i16, i16, i16, double, double }
%struct.libraw_samsung_makernotes_t = type { [4 x i32], [4 x i32], [2 x i32], [11 x i32], double, i32, [32 x i8] }
%struct.libraw_metadata_common_t = type { float, float, float, float, float, float, float, float, float, float, float, float, float, float, float, float, i16, [128 x i8], float, [4 x %struct.libraw_afinfo_item_t], i32 }
%struct.libraw_afinfo_item_t = type { i32, i16, i32, i32, ptr }
%struct.libraw_shootinginfo_t = type { i16, i16, i16, i16, i16, i16, i16, [64 x i8], [64 x i8] }
%struct.libraw_output_params_t = type { [4 x i32], [4 x i32], [4 x double], [6 x double], [4 x float], float, float, i32, i32, i32, i32, i32, i32, i32, ptr, ptr, ptr, ptr, i32, i32, i32, i32, i32, i32, [4 x i32], i32, i32, float, float, i32, i32, i32, i32, i32, i32, i32, i32, float, float, i32, i32 }
%struct.libraw_raw_unpack_params_t = type { i32, i32, i32, i32, i32, i32, i32, float, [5 x i8], ptr }
%struct.libraw_colordata_t = type { [65536 x i16], [4104 x i32], i32, i32, i32, [4 x i64], float, float, [8 x [8 x i16]], [4 x float], [4 x float], [3 x [4 x float]], [3 x [4 x float]], [3 x [4 x float]], [4 x [3 x float]], %struct.ph1_t, float, float, [64 x i8], [64 x i8], [64 x i8], [64 x i8], [17 x i8], [64 x i8], ptr, i32, [8 x i32], [2 x %struct.libraw_dng_color_t], %struct.libraw_dng_levels_t, [256 x [4 x i32]], [64 x [5 x float]], i32, [2 x %struct.libraw_P1_color_t], i32, i32 }
%struct.ph1_t = type { i32, i32, i32, i32, i32, i32, i32, i32, float }
%struct.libraw_dng_color_t = type { i32, i16, [4 x [4 x float]], [4 x [3 x float]], [3 x [4 x float]] }
%struct.libraw_dng_levels_t = type { i32, [4104 x i32], i32, [4104 x float], float, [4 x i32], [4 x i16], [4 x float], i32, [4 x float], [4 x float], float, float }
%struct.libraw_P1_color_t = type { [9 x float] }
%struct.libraw_imgother_t = type { float, float, float, float, i64, i32, [32 x i32], %struct.libraw_gps_info_t, [512 x i8], [64 x i8], [4 x float] }
%struct.libraw_gps_info_t = type { [3 x float], [3 x float], [3 x float], float, i8, i8, i8, i8, i8 }
%struct.libraw_thumbnail_t = type { i32, i16, i16, i32, i32, ptr }
%struct.libraw_thumbnail_list_t = type { i32, [8 x %struct.libraw_thumbnail_item_t] }
%struct.libraw_thumbnail_item_t = type { i32, i16, i16, i16, i32, i32, i64 }
%struct.libraw_rawdata_t = type { ptr, ptr, ptr, ptr, ptr, ptr, ptr, ptr, ptr, %struct.libraw_iparams_t, %struct.libraw_image_sizes_t, %struct.libraw_internal_output_params_t, %struct.libraw_colordata_t }
%struct.libraw_internal_output_params_t = type { i32, i32, i32, i16, i16 }
%struct.libraw_internal_data_t = type { %struct.internal_data_t, %struct.libraw_internal_output_params_t, %struct.output_data_t, %struct.identify_data_t, %struct.unpacker_data_t }
%struct.internal_data_t = type { ptr, ptr, i32, ptr, i64, i64, [4 x i32] }
%struct.output_data_t = type { ptr, ptr }
%struct.identify_data_t = type { i32, i64, i64, i32, i32, i32 }
%struct.unpacker_data_t = type { i16, [4 x i16], [3 x i16], i32, i64, i64, i64, i64, i64, i64, i32, i32, i32, i32, i32, i32, i32, i32, i32, i32, i32, i32, i32, i32, i32, i32, i32, i64, i32, i32, i32, i32, i32, i32, i32, i32, i32, %struct.pana8_tags_t, [16 x %struct.crx_data_header_t], i32, i32, i16, i16, i32, i32, i32, i32, i32, i32, i32, [20 x i32], i16 }
%struct.pana8_tags_t = type { [6 x i32], [6 x i16], i16, [4 x i16], [17 x i16], [17 x i16], [17 x i16], i16, i16, [5 x i64], [5 x i16], [5 x i32], [5 x i16], [5 x i16] }
%struct.crx_data_header_t = type { i32, i32, i32, i32, i32, i32, i32, i32, i32, i32, i32, i32, i32, i32, i32, i64, i32, ptr, i32, i32, i32, ptr, i32, ptr }
%struct.decode = type { [2 x ptr], i32 }
%struct.tiff_ifd_t = type { i32, i32, i32, i32, i32, i32, i32, i32, i32, i32, i32, i32, i32, i32, i32, ptr, i32, ptr, i32, i32, i32, i32, i32, i32, i32, float, i64, i64, i32, [2 x %struct.libraw_dng_color_t], %struct.libraw_dng_levels_t, i32 }
%class.libraw_memmgr = type <{ ptr, i32, [4 x i8] }>
%struct.libraw_callbacks_t = type { ptr, ptr, ptr, ptr, ptr, ptr, ptr, ptr, ptr, ptr, ptr, ptr, ptr, ptr, ptr, ptr, ptr }

; Function Attrs: mustprogress uwtable
define void @_ZN6LibRaw17unpacked_load_rawEv(ptr noundef nonnull align 8 dereferenceable(767680) %0) #0 align 2 {
  %2 = alloca ptr, align 8
  %3 = alloca i32, align 4
  %4 = alloca i32, align 4
  %5 = alloca i32, align 4
  store ptr %0, ptr %2, align 8, !tbaa !6
  %6 = load ptr, ptr %2, align 8
  call void @llvm.lifetime.start.p0(i64 4, ptr %3) #12
  call void @llvm.lifetime.start.p0(i64 4, ptr %4) #12
  call void @llvm.lifetime.start.p0(i64 4, ptr %5) #12
  store i32 0, ptr %5, align 4, !tbaa !11
  br label %7

7:                                                ; preds = %16, %1
  %8 = load i32, ptr %5, align 4, !tbaa !11
  %9 = add nsw i32 %8, 1
  store i32 %9, ptr %5, align 4, !tbaa !11
  %10 = shl i32 1, %9
  %11 = getelementptr inbounds nuw %class.LibRaw, ptr %6, i32 0, i32 1
  %12 = getelementptr inbounds nuw %struct.libraw_data_t, ptr %11, i32 0, i32 10
  %13 = getelementptr inbounds nuw %struct.libraw_colordata_t, ptr %12, i32 0, i32 4
  %14 = load i32, ptr %13, align 8, !tbaa !13
  %15 = icmp slt i32 %10, %14
  br i1 %15, label %16, label %17

16:                                               ; preds = %7
  br label %7, !llvm.loop !74

17:                                               ; preds = %7
  %18 = getelementptr inbounds nuw %class.LibRaw, ptr %6, i32 0, i32 1
  %19 = getelementptr inbounds nuw %struct.libraw_data_t, ptr %18, i32 0, i32 14
  %20 = getelementptr inbounds nuw %struct.libraw_rawdata_t, ptr %19, i32 0, i32 1
  %21 = load ptr, ptr %20, align 8, !tbaa !76
  %22 = getelementptr inbounds nuw %class.LibRaw, ptr %6, i32 0, i32 1
  %23 = getelementptr inbounds nuw %struct.libraw_data_t, ptr %22, i32 0, i32 1
  %24 = getelementptr inbounds nuw %struct.libraw_image_sizes_t, ptr %23, i32 0, i32 1
  %25 = load i16, ptr %24, align 2, !tbaa !77
  %26 = zext i16 %25 to i32
  %27 = getelementptr inbounds nuw %class.LibRaw, ptr %6, i32 0, i32 1
  %28 = getelementptr inbounds nuw %struct.libraw_data_t, ptr %27, i32 0, i32 1
  %29 = getelementptr inbounds nuw %struct.libraw_image_sizes_t, ptr %28, i32 0, i32 0
  %30 = load i16, ptr %29, align 8, !tbaa !78
  %31 = zext i16 %30 to i32
  %32 = mul nsw i32 %26, %31
  call void @_ZN6LibRaw11read_shortsEPtj(ptr noundef nonnull align 8 dereferenceable(767680) %6, ptr noundef %21, i32 noundef %32)
  %33 = getelementptr inbounds nuw %class.LibRaw, ptr %6, i32 0, i32 3
  %34 = getelementptr inbounds nuw %struct.libraw_internal_data_t, ptr %33, i32 0, i32 0
  %35 = getelementptr inbounds nuw %struct.internal_data_t, ptr %34, i32 0, i32 0
  %36 = load ptr, ptr %35, align 8, !tbaa !79
  %37 = load ptr, ptr %36, align 8, !tbaa !80
  %38 = getelementptr inbounds ptr, ptr %37, i64 4
  %39 = load ptr, ptr %38, align 8
  %40 = call noundef i32 %39(ptr noundef nonnull align 8 dereferenceable(8) %36, i64 noundef -2, i32 noundef 1)
  %41 = getelementptr inbounds nuw %class.LibRaw, ptr %6, i32 0, i32 1
  %42 = getelementptr inbounds nuw %struct.libraw_data_t, ptr %41, i32 0, i32 10
  %43 = getelementptr inbounds nuw %struct.libraw_colordata_t, ptr %42, i32 0, i32 4
  %44 = load i32, ptr %43, align 8, !tbaa !13
  %45 = icmp ult i32 %44, 65535
  br i1 %45, label %52, label %46

46:                                               ; preds = %17
  %47 = getelementptr inbounds nuw %class.LibRaw, ptr %6, i32 0, i32 3
  %48 = getelementptr inbounds nuw %struct.libraw_internal_data_t, ptr %47, i32 0, i32 4
  %49 = getelementptr inbounds nuw %struct.unpacker_data_t, ptr %48, i32 0, i32 24
  %50 = load i32, ptr %49, align 8, !tbaa !82
  %51 = icmp ne i32 %50, 0
  br i1 %51, label %52, label %136

52:                                               ; preds = %46, %17
  store i32 0, ptr %3, align 4, !tbaa !11
  br label %53

53:                                               ; preds = %132, %52
  %54 = load i32, ptr %3, align 4, !tbaa !11
  %55 = getelementptr inbounds nuw %class.LibRaw, ptr %6, i32 0, i32 1
  %56 = getelementptr inbounds nuw %struct.libraw_data_t, ptr %55, i32 0, i32 1
  %57 = getelementptr inbounds nuw %struct.libraw_image_sizes_t, ptr %56, i32 0, i32 0
  %58 = load i16, ptr %57, align 8, !tbaa !78
  %59 = zext i16 %58 to i32
  %60 = icmp slt i32 %54, %59
  br i1 %60, label %61, label %135

61:                                               ; preds = %53
  call void @_ZN6LibRaw11checkCancelEv(ptr noundef nonnull align 8 dereferenceable(767680) %6)
  store i32 0, ptr %4, align 4, !tbaa !11
  br label %62

62:                                               ; preds = %128, %61
  %63 = load i32, ptr %4, align 4, !tbaa !11
  %64 = getelementptr inbounds nuw %class.LibRaw, ptr %6, i32 0, i32 1
  %65 = getelementptr inbounds nuw %struct.libraw_data_t, ptr %64, i32 0, i32 1
  %66 = getelementptr inbounds nuw %struct.libraw_image_sizes_t, ptr %65, i32 0, i32 1
  %67 = load i16, ptr %66, align 2, !tbaa !77
  %68 = zext i16 %67 to i32
  %69 = icmp slt i32 %63, %68
  br i1 %69, label %70, label %131

70:                                               ; preds = %62
  %71 = getelementptr inbounds nuw %class.LibRaw, ptr %6, i32 0, i32 3
  %72 = getelementptr inbounds nuw %struct.libraw_internal_data_t, ptr %71, i32 0, i32 4
  %73 = getelementptr inbounds nuw %struct.unpacker_data_t, ptr %72, i32 0, i32 24
  %74 = load i32, ptr %73, align 8, !tbaa !82
  %75 = getelementptr inbounds nuw %class.LibRaw, ptr %6, i32 0, i32 1
  %76 = getelementptr inbounds nuw %struct.libraw_data_t, ptr %75, i32 0, i32 14
  %77 = getelementptr inbounds nuw %struct.libraw_rawdata_t, ptr %76, i32 0, i32 1
  %78 = load ptr, ptr %77, align 8, !tbaa !76
  %79 = load i32, ptr %3, align 4, !tbaa !11
  %80 = getelementptr inbounds nuw %class.LibRaw, ptr %6, i32 0, i32 1
  %81 = getelementptr inbounds nuw %struct.libraw_data_t, ptr %80, i32 0, i32 1
  %82 = getelementptr inbounds nuw %struct.libraw_image_sizes_t, ptr %81, i32 0, i32 1
  %83 = load i16, ptr %82, align 2, !tbaa !77
  %84 = zext i16 %83 to i32
  %85 = mul nsw i32 %79, %84
  %86 = load i32, ptr %4, align 4, !tbaa !11
  %87 = add nsw i32 %85, %86
  %88 = sext i32 %87 to i64
  %89 = getelementptr inbounds i16, ptr %78, i64 %88
  %90 = load i16, ptr %89, align 2, !tbaa !83
  %91 = zext i16 %90 to i32
  %92 = ashr i32 %91, %74
  %93 = trunc i32 %92 to i16
  store i16 %93, ptr %89, align 2, !tbaa !83
  %94 = zext i16 %93 to i32
  %95 = load i32, ptr %5, align 4, !tbaa !11
  %96 = ashr i32 %94, %95
  %97 = icmp ne i32 %96, 0
  br i1 %97, label %98, label %127

98:                                               ; preds = %70
  %99 = load i32, ptr %3, align 4, !tbaa !11
  %100 = getelementptr inbounds nuw %class.LibRaw, ptr %6, i32 0, i32 1
  %101 = getelementptr inbounds nuw %struct.libraw_data_t, ptr %100, i32 0, i32 1
  %102 = getelementptr inbounds nuw %struct.libraw_image_sizes_t, ptr %101, i32 0, i32 4
  %103 = load i16, ptr %102, align 8, !tbaa !84
  %104 = zext i16 %103 to i32
  %105 = sub nsw i32 %99, %104
  %106 = getelementptr inbounds nuw %class.LibRaw, ptr %6, i32 0, i32 1
  %107 = getelementptr inbounds nuw %struct.libraw_data_t, ptr %106, i32 0, i32 1
  %108 = getelementptr inbounds nuw %struct.libraw_image_sizes_t, ptr %107, i32 0, i32 2
  %109 = load i16, ptr %108, align 4, !tbaa !85
  %110 = zext i16 %109 to i32
  %111 = icmp ult i32 %105, %110
  br i1 %111, label %112, label %127

112:                                              ; preds = %98
  %113 = load i32, ptr %4, align 4, !tbaa !11
  %114 = getelementptr inbounds nuw %class.LibRaw, ptr %6, i32 0, i32 1
  %115 = getelementptr inbounds nuw %struct.libraw_data_t, ptr %114, i32 0, i32 1
  %116 = getelementptr inbounds nuw %struct.libraw_image_sizes_t, ptr %115, i32 0, i32 5
  %117 = load i16, ptr %116, align 2, !tbaa !86
  %118 = zext i16 %117 to i32
  %119 = sub nsw i32 %113, %118
  %120 = getelementptr inbounds nuw %class.LibRaw, ptr %6, i32 0, i32 1
  %121 = getelementptr inbounds nuw %struct.libraw_data_t, ptr %120, i32 0, i32 1
  %122 = getelementptr inbounds nuw %struct.libraw_image_sizes_t, ptr %121, i32 0, i32 3
  %123 = load i16, ptr %122, align 2, !tbaa !87
  %124 = zext i16 %123 to i32
  %125 = icmp ult i32 %119, %124
  br i1 %125, label %126, label %127

126:                                              ; preds = %112
  call void @_ZN6LibRaw6derrorEv(ptr noundef nonnull align 8 dereferenceable(767680) %6)
  br label %127

127:                                              ; preds = %126, %112, %98, %70
  br label %128

128:                                              ; preds = %127
  %129 = load i32, ptr %4, align 4, !tbaa !11
  %130 = add nsw i32 %129, 1
  store i32 %130, ptr %4, align 4, !tbaa !11
  br label %62, !llvm.loop !88

131:                                              ; preds = %62
  br label %132

132:                                              ; preds = %131
  %133 = load i32, ptr %3, align 4, !tbaa !11
  %134 = add nsw i32 %133, 1
  store i32 %134, ptr %3, align 4, !tbaa !11
  br label %53, !llvm.loop !89

135:                                              ; preds = %53
  br label %136

136:                                              ; preds = %135, %46
  call void @llvm.lifetime.end.p0(i64 4, ptr %5) #12
  call void @llvm.lifetime.end.p0(i64 4, ptr %4) #12
  call void @llvm.lifetime.end.p0(i64 4, ptr %3) #12
  ret void
}