; Function Attrs: mustprogress uwtable
define void @_ZN6LibRaw17unpacked_load_rawEv(ptr noundef nonnull align 8 dereferenceable(767680) %0) local_unnamed_addr #0 align 2 {
  %2 = getelementptr inbounds nuw i8, ptr %0, i64 153000
  %3 = load i32, ptr %2, align 8, !tbaa !6
  br label %4

4:                                                ; preds = %4, %1
  %.0 = phi i32 [ 0, %1 ], [ %5, %4 ]
  %5 = add nuw nsw i32 %.0, 1
  %6 = shl nuw i32 2, %.0
  %7 = icmp slt i32 %6, %3
  br i1 %7, label %4, label %8, !llvm.loop !71

8:                                                ; preds = %4
  %9 = getelementptr inbounds nuw i8, ptr %0, i64 193648
  %10 = load ptr, ptr %9, align 8, !tbaa !73
  %11 = getelementptr inbounds nuw i8, ptr %0, i64 16
  %12 = getelementptr inbounds nuw i8, ptr %0, i64 18
  %13 = load i16, ptr %12, align 2, !tbaa !74
  %14 = zext i16 %13 to i32
  %15 = load i16, ptr %11, align 8, !tbaa !75
  %16 = zext i16 %15 to i32
  %17 = mul nuw nsw i32 %16, %14
  tail call void @_ZN6LibRaw11read_shortsEPtj(ptr noundef nonnull align 8 dereferenceable(767680) %0, ptr noundef %10, i32 noundef %17)
  %18 = getelementptr inbounds nuw i8, ptr %0, i64 381416
  %19 = load ptr, ptr %18, align 8, !tbaa !76
  %20 = load ptr, ptr %19, align 8, !tbaa !77
  %21 = getelementptr inbounds nuw i8, ptr %20, i64 32
  %22 = load ptr, ptr %21, align 8
  %23 = tail call noundef i32 %22(ptr noundef nonnull align 8 dereferenceable(8) %19, i64 noundef -2, i32 noundef 1)
  %24 = load i32, ptr %2, align 8, !tbaa !6
  %25 = icmp ult i32 %24, 65535
  %26 = getelementptr inbounds nuw i8, ptr %0, i64 381680
  %27 = load i32, ptr %26, align 8
  %.not = icmp ne i32 %27, 0
  %or.cond.not23 = select i1 %25, i1 true, i1 %.not
  %28 = load i16, ptr %11, align 8
  %29 = icmp ne i16 %28, 0
  %or.cond21 = select i1 %or.cond.not23, i1 %29, i1 false
  br i1 %or.cond21, label %.lr.ph18, label %.loopexit

.lr.ph18:                                         ; preds = %8
  %30 = getelementptr inbounds nuw i8, ptr %0, i64 24
  %31 = getelementptr inbounds nuw i8, ptr %0, i64 20
  %32 = getelementptr inbounds nuw i8, ptr %0, i64 26
  %33 = getelementptr inbounds nuw i8, ptr %0, i64 22
  br label %34

34:                                               ; preds = %.lr.ph18, %._crit_edge
  %.01117 = phi i32 [ 0, %.lr.ph18 ], [ %69, %._crit_edge ]
  tail call void @_ZN6LibRaw11checkCancelEv(ptr noundef nonnull align 8 dereferenceable(767680) %0)
  %35 = load i16, ptr %12, align 2, !tbaa !74
  %.not24 = icmp eq i16 %35, 0
  br i1 %.not24, label %._crit_edge, label %.lr.ph.preheader

.lr.ph.preheader:                                 ; preds = %34
  %36 = zext i16 %35 to i32
  br label %.lr.ph

.lr.ph:                                           ; preds = %.lr.ph.preheader, %64
  %37 = phi i32 [ %67, %64 ], [ %36, %.lr.ph.preheader ]
  %.01016 = phi i32 [ %65, %64 ], [ 0, %.lr.ph.preheader ]
  %38 = load i32, ptr %26, align 8, !tbaa !79
  %39 = load ptr, ptr %9, align 8, !tbaa !73
  %40 = mul nuw nsw i32 %37, %.01117
  %41 = add nuw nsw i32 %40, %.01016
  %42 = zext nneg i32 %41 to i64
  %43 = getelementptr inbounds nuw i16, ptr %39, i64 %42
  %44 = load i16, ptr %43, align 2, !tbaa !80
  %45 = zext i16 %44 to i32
  %46 = lshr i32 %45, %38
  %47 = trunc nuw i32 %46 to i16
  store i16 %47, ptr %43, align 2, !tbaa !80
  %48 = lshr i32 %46, %5
  %.not13 = icmp eq i32 %48, 0
  br i1 %.not13, label %64, label %49

49:                                               ; preds = %.lr.ph
  %50 = load i16, ptr %30, align 8, !tbaa !81
  %51 = zext i16 %50 to i32
  %52 = sub nsw i32 %.01117, %51
  %53 = load i16, ptr %31, align 4, !tbaa !82
  %54 = zext i16 %53 to i32
  %55 = icmp ult i32 %52, %54
  br i1 %55, label %56, label %64

56:                                               ; preds = %49
  %57 = load i16, ptr %32, align 2, !tbaa !83
  %58 = zext i16 %57 to i32
  %59 = sub nsw i32 %.01016, %58
  %60 = load i16, ptr %33, align 2, !tbaa !84
  %61 = zext i16 %60 to i32
  %62 = icmp ult i32 %59, %61
  br i1 %62, label %63, label %64

63:                                               ; preds = %56
  tail call void @_ZN6LibRaw6derrorEv(ptr noundef nonnull align 8 dereferenceable(767680) %0)
  br label %64

64:                                               ; preds = %.lr.ph, %49, %56, %63
  %65 = add nuw nsw i32 %.01016, 1
  %66 = load i16, ptr %12, align 2, !tbaa !74
  %67 = zext i16 %66 to i32
  %68 = icmp samesign ult i32 %65, %67
  br i1 %68, label %.lr.ph, label %._crit_edge, !llvm.loop !85

._crit_edge:                                      ; preds = %64, %34
  %69 = add nuw nsw i32 %.01117, 1
  %70 = load i16, ptr %11, align 8, !tbaa !75
  %71 = zext i16 %70 to i32
  %72 = icmp samesign ult i32 %69, %71
  br i1 %72, label %34, label %.loopexit, !llvm.loop !86

.loopexit:                                        ; preds = %._crit_edge, %8
  ret void
}